target datalayout = "e-m:e-p270:32:32-p271:32:32-p272:64:64-i64:64-i128:128-f80:128-n8:16:32:64-S128"
target triple = "x86_64-pc-linux-gnu"

%"class.clang::SourceLocation" = type { i32 }
%"class.llvm::StringRef" = type { ptr, i64 }
%"class.(anonymous namespace)::RewritesApplicator" = type { %"class.clang::arcmt::TransformActions::RewriteReceiver", ptr, ptr }
%"class.clang::arcmt::TransformActions::RewriteReceiver" = type { ptr }

; Function Attrs: mustprogress nounwind uwtable
define internal void @_ZN12_GLOBAL__N_118RewritesApplicator6insertEN5clang14SourceLocationEN4llvm9StringRefE(ptr noundef nonnull align 8 dereferenceable(24) %0, i32 %1, ptr %2, i64 %3) unnamed_addr #0 align 2 {
  %5 = alloca %"class.clang::SourceLocation", align 4
  %6 = alloca %"class.llvm::StringRef", align 8
  %7 = alloca ptr, align 8
  %8 = alloca i8, align 1
  %9 = alloca %"class.clang::SourceLocation", align 4
  %10 = alloca %"class.llvm::StringRef", align 8
  %11 = alloca %"class.clang::SourceLocation", align 4
  %12 = alloca %"class.llvm::StringRef", align 8
  %13 = getelementptr inbounds nuw %"class.clang::SourceLocation", ptr %5, i32 0, i32 0
  store i32 %1, ptr %13, align 4
  %14 = getelementptr inbounds nuw { ptr, i64 }, ptr %6, i32 0, i32 0
  store ptr %2, ptr %14, align 8
  %15 = getelementptr inbounds nuw { ptr, i64 }, ptr %6, i32 0, i32 1
  store i64 %3, ptr %15, align 8
  store ptr %0, ptr %7, align 8
  %16 = load ptr, ptr %7, align 8
  %17 = getelementptr inbounds nuw %"class.(anonymous namespace)::RewritesApplicator", ptr %16, i32 0, i32 1
  %18 = load ptr, ptr %17, align 8
  call void @llvm.memcpy.p0.p0.i64(ptr align 4 %9, ptr align 4 %5, i64 4, i1 false)
  call void @llvm.memcpy.p0.p0.i64(ptr align 8 %10, ptr align 8 %6, i64 16, i1 false)
  %19 = getelementptr inbounds nuw %"class.clang::SourceLocation", ptr %9, i32 0, i32 0
  %20 = load i32, ptr %19, align 4
  %21 = getelementptr inbounds nuw { ptr, i64 }, ptr %10, i32 0, i32 0
  %22 = load ptr, ptr %21, align 8
  %23 = getelementptr inbounds nuw { ptr, i64 }, ptr %10, i32 0, i32 1
  %24 = load i64, ptr %23, align 8
  %25 = call noundef zeroext i1 @_ZN5clang8Rewriter10InsertTextENS_14SourceLocationEN4llvm9StringRefEbb(ptr noundef nonnull align 8 dereferenceable(64) %18, i32 %20, ptr %22, i64 %24, i1 noundef zeroext true, i1 noundef zeroext true)
  %26 = zext i1 %25 to i8
  store i8 %26, ptr %8, align 1
  %27 = load i8, ptr %8, align 1
  %28 = trunc i8 %27 to i1
  br i1 %28, label %45, label %29

29:                                               ; preds = %4
  %30 = getelementptr inbounds nuw %"class.(anonymous namespace)::RewritesApplicator", ptr %16, i32 0, i32 2
  %31 = load ptr, ptr %30, align 8
  %32 = icmp ne ptr %31, null
  br i1 %32, label %33, label %45

33:                                               ; preds = %29
  %34 = getelementptr inbounds nuw %"class.(anonymous namespace)::RewritesApplicator", ptr %16, i32 0, i32 2
  %35 = load ptr, ptr %34, align 8
  call void @llvm.memcpy.p0.p0.i64(ptr align 4 %11, ptr align 4 %5, i64 4, i1 false)
  call void @llvm.memcpy.p0.p0.i64(ptr align 8 %12, ptr align 8 %6, i64 16, i1 false)
  %36 = getelementptr inbounds nuw %"class.clang::SourceLocation", ptr %11, i32 0, i32 0
  %37 = load i32, ptr %36, align 4
  %38 = getelementptr inbounds nuw { ptr, i64 }, ptr %12, i32 0, i32 0
  %39 = load ptr, ptr %38, align 8
  %40 = getelementptr inbounds nuw { ptr, i64 }, ptr %12, i32 0, i32 1
  %41 = load i64, ptr %40, align 8
  %42 = load ptr, ptr %35, align 8
  %43 = getelementptr inbounds ptr, ptr %42, i64 4
  %44 = load ptr, ptr %43, align 8
  call void %44(ptr noundef nonnull align 8 dereferenceable(8) %35, i32 %37, ptr %39, i64 %41)
  br label %45

45:                                               ; preds = %33, %29, %4
  ret void
}