; Function Attrs: mustprogress nounwind uwtable
define internal void @_ZN12_GLOBAL__N_118RewritesApplicator6insertEN5clang14SourceLocationEN4llvm9StringRefE(ptr nocapture noundef nonnull readonly align 8 dereferenceable(24) %0, i32 %1, ptr %2, i64 %3) unnamed_addr #0 align 2 {
  %5 = getelementptr inbounds nuw i8, ptr %0, i64 8
  %6 = load ptr, ptr %5, align 8
  %7 = tail call noundef zeroext i1 @_ZN5clang8Rewriter10InsertTextENS_14SourceLocationEN4llvm9StringRefEbb(ptr noundef nonnull align 8 dereferenceable(64) %6, i32 %1, ptr %2, i64 %3, i1 noundef zeroext true, i1 noundef zeroext true) #16
  br i1 %7, label %15, label %8

8:                                                ; preds = %4
  %9 = getelementptr inbounds nuw i8, ptr %0, i64 16
  %10 = load ptr, ptr %9, align 8
  %.not = icmp eq ptr %10, null
  br i1 %.not, label %15, label %11

11:                                               ; preds = %8
  %12 = load ptr, ptr %10, align 8
  %13 = getelementptr inbounds i8, ptr %12, i64 32
  %14 = load ptr, ptr %13, align 8
  tail call void %14(ptr noundef nonnull align 8 dereferenceable(8) %10, i32 %1, ptr %2, i64 %3) #16
  br label %15

15:                                               ; preds = %11, %8, %4
  ret void
}